
32riscv-elf/matrixmulti.riscv:     file format elf32-littleriscv


Disassembly of section .text:

00010074 <register_fini>:
   10074:	000007b7          	lui	a5,0x0
   10078:	00078793          	mv	a5,a5
   1007c:	00078863          	beqz	a5,1008c <register_fini+0x18>
   10080:	00011537          	lui	a0,0x11
   10084:	f3450513          	addi	a0,a0,-204 # 10f34 <__libc_fini_array>
   10088:	7090006f          	j	10f90 <atexit>
   1008c:	00008067          	ret

00010090 <_start>:
   10090:	00003197          	auipc	gp,0x3
   10094:	86018193          	addi	gp,gp,-1952 # 128f0 <__global_pointer$>
   10098:	c3818513          	addi	a0,gp,-968 # 12528 <_edata>
   1009c:	c5418613          	addi	a2,gp,-940 # 12544 <__BSS_END__>
   100a0:	40a60633          	sub	a2,a2,a0
   100a4:	00000593          	li	a1,0
   100a8:	491000ef          	jal	ra,10d38 <memset>
   100ac:	00001517          	auipc	a0,0x1
   100b0:	ee450513          	addi	a0,a0,-284 # 10f90 <atexit>
   100b4:	00050863          	beqz	a0,100c4 <_start+0x34>
   100b8:	00001517          	auipc	a0,0x1
   100bc:	e7c50513          	addi	a0,a0,-388 # 10f34 <__libc_fini_array>
   100c0:	6d1000ef          	jal	ra,10f90 <atexit>
   100c4:	3d9000ef          	jal	ra,10c9c <__libc_init_array>
   100c8:	00012503          	lw	a0,0(sp)
   100cc:	00410593          	addi	a1,sp,4
   100d0:	00000613          	li	a2,0
   100d4:	2d4000ef          	jal	ra,103a8 <main>
   100d8:	3950006f          	j	10c6c <exit>

000100dc <__do_global_dtors_aux>:
   100dc:	c381c703          	lbu	a4,-968(gp) # 12528 <_edata>
   100e0:	04071463          	bnez	a4,10128 <__do_global_dtors_aux+0x4c>
   100e4:	ff010113          	addi	sp,sp,-16
   100e8:	00812423          	sw	s0,8(sp)
   100ec:	00078413          	mv	s0,a5
   100f0:	000007b7          	lui	a5,0x0
   100f4:	00112623          	sw	ra,12(sp)
   100f8:	00078793          	mv	a5,a5
   100fc:	00078a63          	beqz	a5,10110 <__do_global_dtors_aux+0x34>
   10100:	00012537          	lui	a0,0x12
   10104:	0dc50513          	addi	a0,a0,220 # 120dc <__FRAME_END__>
   10108:	00000097          	auipc	ra,0x0
   1010c:	000000e7          	jalr	zero # 0 <register_fini-0x10074>
   10110:	00100793          	li	a5,1
   10114:	00c12083          	lw	ra,12(sp)
   10118:	c2f18c23          	sb	a5,-968(gp) # 12528 <_edata>
   1011c:	00812403          	lw	s0,8(sp)
   10120:	01010113          	addi	sp,sp,16
   10124:	00008067          	ret
   10128:	00008067          	ret

0001012c <frame_dummy>:
   1012c:	000007b7          	lui	a5,0x0
   10130:	00078793          	mv	a5,a5
   10134:	00078c63          	beqz	a5,1014c <frame_dummy+0x20>
   10138:	00012537          	lui	a0,0x12
   1013c:	c3c18593          	addi	a1,gp,-964 # 1252c <object.5495>
   10140:	0dc50513          	addi	a0,a0,220 # 120dc <__FRAME_END__>
   10144:	00000317          	auipc	t1,0x0
   10148:	00000067          	jr	zero # 0 <register_fini-0x10074>
   1014c:	00008067          	ret

00010150 <matmulti>:
   10150:	fb010113          	addi	sp,sp,-80
   10154:	04112623          	sw	ra,76(sp)
   10158:	04812423          	sw	s0,72(sp)
   1015c:	04912223          	sw	s1,68(sp)
   10160:	05212023          	sw	s2,64(sp)
   10164:	03312e23          	sw	s3,60(sp)
   10168:	05010413          	addi	s0,sp,80
   1016c:	faa42e23          	sw	a0,-68(s0)
   10170:	fab42c23          	sw	a1,-72(s0)
   10174:	fac42a23          	sw	a2,-76(s0)
   10178:	fad42823          	sw	a3,-80(s0)
   1017c:	00a00693          	li	a3,10
   10180:	fff68693          	addi	a3,a3,-1
   10184:	fcd42e23          	sw	a3,-36(s0)
   10188:	00a00693          	li	a3,10
   1018c:	00068913          	mv	s2,a3
   10190:	00000993          	li	s3,0
   10194:	01b95693          	srli	a3,s2,0x1b
   10198:	00599393          	slli	t2,s3,0x5
   1019c:	0076e3b3          	or	t2,a3,t2
   101a0:	00591313          	slli	t1,s2,0x5
   101a4:	00a00693          	li	a3,10
   101a8:	fff68693          	addi	a3,a3,-1
   101ac:	fcd42623          	sw	a3,-52(s0)
   101b0:	00a00693          	li	a3,10
   101b4:	00068f13          	mv	t5,a3
   101b8:	00000f93          	li	t6,0
   101bc:	01bf5693          	srli	a3,t5,0x1b
   101c0:	005f9893          	slli	a7,t6,0x5
   101c4:	0116e8b3          	or	a7,a3,a7
   101c8:	005f1813          	slli	a6,t5,0x5
   101cc:	00a00693          	li	a3,10
   101d0:	fff68693          	addi	a3,a3,-1
   101d4:	fcd42423          	sw	a3,-56(s0)
   101d8:	00a00693          	li	a3,10
   101dc:	00068e13          	mv	t3,a3
   101e0:	00000e93          	li	t4,0
   101e4:	01be5693          	srli	a3,t3,0x1b
   101e8:	005e9793          	slli	a5,t4,0x5
   101ec:	00f6e7b3          	or	a5,a3,a5
   101f0:	005e1713          	slli	a4,t3,0x5
   101f4:	fc042823          	sw	zero,-48(s0)
   101f8:	1800006f          	j	10378 <matmulti+0x228>
   101fc:	fc042a23          	sw	zero,-44(s0)
   10200:	1600006f          	j	10360 <matmulti+0x210>
   10204:	00a00793          	li	a5,10
   10208:	00078713          	mv	a4,a5
   1020c:	fd042783          	lw	a5,-48(s0)
   10210:	00078593          	mv	a1,a5
   10214:	00070513          	mv	a0,a4
   10218:	1a1000ef          	jal	ra,10bb8 <__mulsi3>
   1021c:	00050793          	mv	a5,a0
   10220:	00279793          	slli	a5,a5,0x2
   10224:	fb442703          	lw	a4,-76(s0)
   10228:	00f70733          	add	a4,a4,a5
   1022c:	fd442783          	lw	a5,-44(s0)
   10230:	00279793          	slli	a5,a5,0x2
   10234:	00f707b3          	add	a5,a4,a5
   10238:	0007a023          	sw	zero,0(a5) # 0 <register_fini-0x10074>
   1023c:	fc042c23          	sw	zero,-40(s0)
   10240:	1080006f          	j	10348 <matmulti+0x1f8>
   10244:	00a00793          	li	a5,10
   10248:	00078713          	mv	a4,a5
   1024c:	fd042783          	lw	a5,-48(s0)
   10250:	00078593          	mv	a1,a5
   10254:	00070513          	mv	a0,a4
   10258:	161000ef          	jal	ra,10bb8 <__mulsi3>
   1025c:	00050793          	mv	a5,a0
   10260:	00279793          	slli	a5,a5,0x2
   10264:	fb442703          	lw	a4,-76(s0)
   10268:	00f70733          	add	a4,a4,a5
   1026c:	fd442783          	lw	a5,-44(s0)
   10270:	00279793          	slli	a5,a5,0x2
   10274:	00f707b3          	add	a5,a4,a5
   10278:	0007a483          	lw	s1,0(a5)
   1027c:	00a00793          	li	a5,10
   10280:	00078713          	mv	a4,a5
   10284:	fd042783          	lw	a5,-48(s0)
   10288:	00078593          	mv	a1,a5
   1028c:	00070513          	mv	a0,a4
   10290:	129000ef          	jal	ra,10bb8 <__mulsi3>
   10294:	00050793          	mv	a5,a0
   10298:	00279793          	slli	a5,a5,0x2
   1029c:	fbc42703          	lw	a4,-68(s0)
   102a0:	00f70733          	add	a4,a4,a5
   102a4:	fd842783          	lw	a5,-40(s0)
   102a8:	00279793          	slli	a5,a5,0x2
   102ac:	00f707b3          	add	a5,a4,a5
   102b0:	0007a903          	lw	s2,0(a5)
   102b4:	00a00793          	li	a5,10
   102b8:	00078713          	mv	a4,a5
   102bc:	fd842783          	lw	a5,-40(s0)
   102c0:	00078593          	mv	a1,a5
   102c4:	00070513          	mv	a0,a4
   102c8:	0f1000ef          	jal	ra,10bb8 <__mulsi3>
   102cc:	00050793          	mv	a5,a0
   102d0:	00279793          	slli	a5,a5,0x2
   102d4:	fb842703          	lw	a4,-72(s0)
   102d8:	00f70733          	add	a4,a4,a5
   102dc:	fd442783          	lw	a5,-44(s0)
   102e0:	00279793          	slli	a5,a5,0x2
   102e4:	00f707b3          	add	a5,a4,a5
   102e8:	0007a783          	lw	a5,0(a5)
   102ec:	00078593          	mv	a1,a5
   102f0:	00090513          	mv	a0,s2
   102f4:	0c5000ef          	jal	ra,10bb8 <__mulsi3>
   102f8:	00050793          	mv	a5,a0
   102fc:	00078913          	mv	s2,a5
   10300:	00a00793          	li	a5,10
   10304:	00078713          	mv	a4,a5
   10308:	fd042783          	lw	a5,-48(s0)
   1030c:	00078593          	mv	a1,a5
   10310:	00070513          	mv	a0,a4
   10314:	0a5000ef          	jal	ra,10bb8 <__mulsi3>
   10318:	00050793          	mv	a5,a0
   1031c:	00279793          	slli	a5,a5,0x2
   10320:	fb442703          	lw	a4,-76(s0)
   10324:	00f706b3          	add	a3,a4,a5
   10328:	01248733          	add	a4,s1,s2
   1032c:	fd442783          	lw	a5,-44(s0)
   10330:	00279793          	slli	a5,a5,0x2
   10334:	00f687b3          	add	a5,a3,a5
   10338:	00e7a023          	sw	a4,0(a5)
   1033c:	fd842783          	lw	a5,-40(s0)
   10340:	00178793          	addi	a5,a5,1
   10344:	fcf42c23          	sw	a5,-40(s0)
   10348:	fd842703          	lw	a4,-40(s0)
   1034c:	fb042783          	lw	a5,-80(s0)
   10350:	eef74ae3          	blt	a4,a5,10244 <matmulti+0xf4>
   10354:	fd442783          	lw	a5,-44(s0)
   10358:	00178793          	addi	a5,a5,1
   1035c:	fcf42a23          	sw	a5,-44(s0)
   10360:	fd442703          	lw	a4,-44(s0)
   10364:	fb042783          	lw	a5,-80(s0)
   10368:	e8f74ee3          	blt	a4,a5,10204 <matmulti+0xb4>
   1036c:	fd042783          	lw	a5,-48(s0)
   10370:	00178793          	addi	a5,a5,1
   10374:	fcf42823          	sw	a5,-48(s0)
   10378:	fd042703          	lw	a4,-48(s0)
   1037c:	fb042783          	lw	a5,-80(s0)
   10380:	e6f74ee3          	blt	a4,a5,101fc <matmulti+0xac>
   10384:	00000013          	nop
   10388:	00000013          	nop
   1038c:	04c12083          	lw	ra,76(sp)
   10390:	04812403          	lw	s0,72(sp)
   10394:	04412483          	lw	s1,68(sp)
   10398:	04012903          	lw	s2,64(sp)
   1039c:	03c12983          	lw	s3,60(sp)
   103a0:	05010113          	addi	sp,sp,80
   103a4:	00008067          	ret

000103a8 <main>:
   103a8:	ef010113          	addi	sp,sp,-272
   103ac:	10112623          	sw	ra,268(sp)
   103b0:	10812423          	sw	s0,264(sp)
   103b4:	10912223          	sw	s1,260(sp)
   103b8:	11212023          	sw	s2,256(sp)
   103bc:	0f312e23          	sw	s3,252(sp)
   103c0:	0f412c23          	sw	s4,248(sp)
   103c4:	0f512a23          	sw	s5,244(sp)
   103c8:	0f612823          	sw	s6,240(sp)
   103cc:	0f712623          	sw	s7,236(sp)
   103d0:	0f812423          	sw	s8,232(sp)
   103d4:	0f912223          	sw	s9,228(sp)
   103d8:	0fa12023          	sw	s10,224(sp)
   103dc:	0db12e23          	sw	s11,220(sp)
   103e0:	11010413          	addi	s0,sp,272
   103e4:	00010793          	mv	a5,sp
   103e8:	f4f42423          	sw	a5,-184(s0)
   103ec:	00a00793          	li	a5,10
   103f0:	fff78793          	addi	a5,a5,-1
   103f4:	faf42c23          	sw	a5,-72(s0)
   103f8:	00a00793          	li	a5,10
   103fc:	00078513          	mv	a0,a5
   10400:	00000593          	li	a1,0
   10404:	01b55793          	srli	a5,a0,0x1b
   10408:	00559693          	slli	a3,a1,0x5
   1040c:	00d7e6b3          	or	a3,a5,a3
   10410:	00551613          	slli	a2,a0,0x5
   10414:	00a00793          	li	a5,10
   10418:	00279793          	slli	a5,a5,0x2
   1041c:	f4f42623          	sw	a5,-180(s0)
   10420:	00a00793          	li	a5,10
   10424:	fff78793          	addi	a5,a5,-1
   10428:	faf42e23          	sw	a5,-68(s0)
   1042c:	00a00793          	li	a5,10
   10430:	00078313          	mv	t1,a5
   10434:	00000393          	li	t2,0
   10438:	00a00793          	li	a5,10
   1043c:	00078813          	mv	a6,a5
   10440:	00000893          	li	a7,0
   10444:	00080613          	mv	a2,a6
   10448:	00088693          	mv	a3,a7
   1044c:	00030513          	mv	a0,t1
   10450:	00038593          	mv	a1,t2
   10454:	788000ef          	jal	ra,10bdc <__muldi3>
   10458:	00050713          	mv	a4,a0
   1045c:	00058793          	mv	a5,a1
   10460:	01b75693          	srli	a3,a4,0x1b
   10464:	00579993          	slli	s3,a5,0x5
   10468:	0136e9b3          	or	s3,a3,s3
   1046c:	00571913          	slli	s2,a4,0x5
   10470:	00a00793          	li	a5,10
   10474:	00078713          	mv	a4,a5
   10478:	00a00793          	li	a5,10
   1047c:	00078593          	mv	a1,a5
   10480:	00070513          	mv	a0,a4
   10484:	734000ef          	jal	ra,10bb8 <__mulsi3>
   10488:	00a00793          	li	a5,10
   1048c:	f4f42023          	sw	a5,-192(s0)
   10490:	f4042223          	sw	zero,-188(s0)
   10494:	00a00793          	li	a5,10
   10498:	f2f42c23          	sw	a5,-200(s0)
   1049c:	f2042e23          	sw	zero,-196(s0)
   104a0:	f3842603          	lw	a2,-200(s0)
   104a4:	f3c42683          	lw	a3,-196(s0)
   104a8:	f4042503          	lw	a0,-192(s0)
   104ac:	f4442583          	lw	a1,-188(s0)
   104b0:	72c000ef          	jal	ra,10bdc <__muldi3>
   104b4:	00050713          	mv	a4,a0
   104b8:	00058793          	mv	a5,a1
   104bc:	01b75693          	srli	a3,a4,0x1b
   104c0:	00579a93          	slli	s5,a5,0x5
   104c4:	0156eab3          	or	s5,a3,s5
   104c8:	00571a13          	slli	s4,a4,0x5
   104cc:	00a00793          	li	a5,10
   104d0:	00078713          	mv	a4,a5
   104d4:	00a00793          	li	a5,10
   104d8:	00078593          	mv	a1,a5
   104dc:	00070513          	mv	a0,a4
   104e0:	6d8000ef          	jal	ra,10bb8 <__mulsi3>
   104e4:	00050793          	mv	a5,a0
   104e8:	00279793          	slli	a5,a5,0x2
   104ec:	00f78793          	addi	a5,a5,15
   104f0:	0047d793          	srli	a5,a5,0x4
   104f4:	00479793          	slli	a5,a5,0x4
   104f8:	40f10133          	sub	sp,sp,a5
   104fc:	00010793          	mv	a5,sp
   10500:	00378793          	addi	a5,a5,3
   10504:	0027d793          	srli	a5,a5,0x2
   10508:	00279793          	slli	a5,a5,0x2
   1050c:	f8f42a23          	sw	a5,-108(s0)
   10510:	00a00793          	li	a5,10
   10514:	fff78793          	addi	a5,a5,-1
   10518:	f8f42823          	sw	a5,-112(s0)
   1051c:	00a00793          	li	a5,10
   10520:	00078c13          	mv	s8,a5
   10524:	00000c93          	li	s9,0
   10528:	01bc5793          	srli	a5,s8,0x1b
   1052c:	005c9b93          	slli	s7,s9,0x5
   10530:	0177ebb3          	or	s7,a5,s7
   10534:	005c1b13          	slli	s6,s8,0x5
   10538:	00a00793          	li	a5,10
   1053c:	00279993          	slli	s3,a5,0x2
   10540:	00a00793          	li	a5,10
   10544:	fff78793          	addi	a5,a5,-1
   10548:	f8f42623          	sw	a5,-116(s0)
   1054c:	00a00793          	li	a5,10
   10550:	f2f42823          	sw	a5,-208(s0)
   10554:	f2042a23          	sw	zero,-204(s0)
   10558:	00a00793          	li	a5,10
   1055c:	f2f42423          	sw	a5,-216(s0)
   10560:	f2042623          	sw	zero,-212(s0)
   10564:	f2842603          	lw	a2,-216(s0)
   10568:	f2c42683          	lw	a3,-212(s0)
   1056c:	f3042503          	lw	a0,-208(s0)
   10570:	f3442583          	lw	a1,-204(s0)
   10574:	668000ef          	jal	ra,10bdc <__muldi3>
   10578:	00050713          	mv	a4,a0
   1057c:	00058793          	mv	a5,a1
   10580:	01b75693          	srli	a3,a4,0x1b
   10584:	00579613          	slli	a2,a5,0x5
   10588:	f6c42623          	sw	a2,-148(s0)
   1058c:	f6c42603          	lw	a2,-148(s0)
   10590:	00c6e6b3          	or	a3,a3,a2
   10594:	f6d42623          	sw	a3,-148(s0)
   10598:	00571793          	slli	a5,a4,0x5
   1059c:	f6f42423          	sw	a5,-152(s0)
   105a0:	00a00793          	li	a5,10
   105a4:	00078713          	mv	a4,a5
   105a8:	00a00793          	li	a5,10
   105ac:	00078593          	mv	a1,a5
   105b0:	00070513          	mv	a0,a4
   105b4:	604000ef          	jal	ra,10bb8 <__mulsi3>
   105b8:	00a00793          	li	a5,10
   105bc:	f2f42023          	sw	a5,-224(s0)
   105c0:	f2042223          	sw	zero,-220(s0)
   105c4:	00a00793          	li	a5,10
   105c8:	f0f42c23          	sw	a5,-232(s0)
   105cc:	f0042e23          	sw	zero,-228(s0)
   105d0:	f1842603          	lw	a2,-232(s0)
   105d4:	f1c42683          	lw	a3,-228(s0)
   105d8:	f2042503          	lw	a0,-224(s0)
   105dc:	f2442583          	lw	a1,-220(s0)
   105e0:	5fc000ef          	jal	ra,10bdc <__muldi3>
   105e4:	00050713          	mv	a4,a0
   105e8:	00058793          	mv	a5,a1
   105ec:	01b75693          	srli	a3,a4,0x1b
   105f0:	00579613          	slli	a2,a5,0x5
   105f4:	f6c42223          	sw	a2,-156(s0)
   105f8:	f6442603          	lw	a2,-156(s0)
   105fc:	00c6e6b3          	or	a3,a3,a2
   10600:	f6d42223          	sw	a3,-156(s0)
   10604:	00571793          	slli	a5,a4,0x5
   10608:	f6f42023          	sw	a5,-160(s0)
   1060c:	00a00793          	li	a5,10
   10610:	00078713          	mv	a4,a5
   10614:	00a00793          	li	a5,10
   10618:	00078593          	mv	a1,a5
   1061c:	00070513          	mv	a0,a4
   10620:	598000ef          	jal	ra,10bb8 <__mulsi3>
   10624:	00050793          	mv	a5,a0
   10628:	00279793          	slli	a5,a5,0x2
   1062c:	00f78793          	addi	a5,a5,15
   10630:	0047d793          	srli	a5,a5,0x4
   10634:	00479793          	slli	a5,a5,0x4
   10638:	40f10133          	sub	sp,sp,a5
   1063c:	00010793          	mv	a5,sp
   10640:	00378793          	addi	a5,a5,3
   10644:	0027d793          	srli	a5,a5,0x2
   10648:	00279793          	slli	a5,a5,0x2
   1064c:	f8f42423          	sw	a5,-120(s0)
   10650:	00a00793          	li	a5,10
   10654:	fff78793          	addi	a5,a5,-1
   10658:	f8f42223          	sw	a5,-124(s0)
   1065c:	00a00793          	li	a5,10
   10660:	f0f42823          	sw	a5,-240(s0)
   10664:	f0042a23          	sw	zero,-236(s0)
   10668:	f1042683          	lw	a3,-240(s0)
   1066c:	f1442703          	lw	a4,-236(s0)
   10670:	00068793          	mv	a5,a3
   10674:	01b7d793          	srli	a5,a5,0x1b
   10678:	00070613          	mv	a2,a4
   1067c:	00561613          	slli	a2,a2,0x5
   10680:	f4c42e23          	sw	a2,-164(s0)
   10684:	f5c42603          	lw	a2,-164(s0)
   10688:	00c7e7b3          	or	a5,a5,a2
   1068c:	f4f42e23          	sw	a5,-164(s0)
   10690:	00068793          	mv	a5,a3
   10694:	00579793          	slli	a5,a5,0x5
   10698:	f4f42c23          	sw	a5,-168(s0)
   1069c:	00a00793          	li	a5,10
   106a0:	00279493          	slli	s1,a5,0x2
   106a4:	00a00793          	li	a5,10
   106a8:	fff78793          	addi	a5,a5,-1
   106ac:	f8f42023          	sw	a5,-128(s0)
   106b0:	00a00793          	li	a5,10
   106b4:	f0f42423          	sw	a5,-248(s0)
   106b8:	f0042623          	sw	zero,-244(s0)
   106bc:	00a00793          	li	a5,10
   106c0:	f0f42023          	sw	a5,-256(s0)
   106c4:	f0042223          	sw	zero,-252(s0)
   106c8:	f0042603          	lw	a2,-256(s0)
   106cc:	f0442683          	lw	a3,-252(s0)
   106d0:	f0842503          	lw	a0,-248(s0)
   106d4:	f0c42583          	lw	a1,-244(s0)
   106d8:	504000ef          	jal	ra,10bdc <__muldi3>
   106dc:	00050713          	mv	a4,a0
   106e0:	00058793          	mv	a5,a1
   106e4:	01b75693          	srli	a3,a4,0x1b
   106e8:	00579613          	slli	a2,a5,0x5
   106ec:	f4c42a23          	sw	a2,-172(s0)
   106f0:	f5442603          	lw	a2,-172(s0)
   106f4:	00c6e6b3          	or	a3,a3,a2
   106f8:	f4d42a23          	sw	a3,-172(s0)
   106fc:	00571793          	slli	a5,a4,0x5
   10700:	f4f42823          	sw	a5,-176(s0)
   10704:	00a00793          	li	a5,10
   10708:	00078713          	mv	a4,a5
   1070c:	00a00793          	li	a5,10
   10710:	00078593          	mv	a1,a5
   10714:	00070513          	mv	a0,a4
   10718:	4a0000ef          	jal	ra,10bb8 <__mulsi3>
   1071c:	00a00793          	li	a5,10
   10720:	eef42c23          	sw	a5,-264(s0)
   10724:	ee042e23          	sw	zero,-260(s0)
   10728:	00a00793          	li	a5,10
   1072c:	eef42823          	sw	a5,-272(s0)
   10730:	ee042a23          	sw	zero,-268(s0)
   10734:	ef042603          	lw	a2,-272(s0)
   10738:	ef442683          	lw	a3,-268(s0)
   1073c:	ef842503          	lw	a0,-264(s0)
   10740:	efc42583          	lw	a1,-260(s0)
   10744:	498000ef          	jal	ra,10bdc <__muldi3>
   10748:	00050713          	mv	a4,a0
   1074c:	00058793          	mv	a5,a1
   10750:	01b75693          	srli	a3,a4,0x1b
   10754:	00579d93          	slli	s11,a5,0x5
   10758:	01b6edb3          	or	s11,a3,s11
   1075c:	00571d13          	slli	s10,a4,0x5
   10760:	00a00793          	li	a5,10
   10764:	00078713          	mv	a4,a5
   10768:	00a00793          	li	a5,10
   1076c:	00078593          	mv	a1,a5
   10770:	00070513          	mv	a0,a4
   10774:	444000ef          	jal	ra,10bb8 <__mulsi3>
   10778:	00050793          	mv	a5,a0
   1077c:	00279793          	slli	a5,a5,0x2
   10780:	00f78793          	addi	a5,a5,15
   10784:	0047d793          	srli	a5,a5,0x4
   10788:	00479793          	slli	a5,a5,0x4
   1078c:	40f10133          	sub	sp,sp,a5
   10790:	00010793          	mv	a5,sp
   10794:	00378793          	addi	a5,a5,3
   10798:	0027d793          	srli	a5,a5,0x2
   1079c:	00279793          	slli	a5,a5,0x2
   107a0:	f6f42e23          	sw	a5,-132(s0)
   107a4:	f8042c23          	sw	zero,-104(s0)
   107a8:	0c00006f          	j	10868 <main+0x4c0>
   107ac:	f8042e23          	sw	zero,-100(s0)
   107b0:	0a00006f          	j	10850 <main+0x4a8>
   107b4:	f4c42783          	lw	a5,-180(s0)
   107b8:	0027d793          	srli	a5,a5,0x2
   107bc:	f9442903          	lw	s2,-108(s0)
   107c0:	f9842583          	lw	a1,-104(s0)
   107c4:	00078513          	mv	a0,a5
   107c8:	3f0000ef          	jal	ra,10bb8 <__mulsi3>
   107cc:	00050713          	mv	a4,a0
   107d0:	f9c42783          	lw	a5,-100(s0)
   107d4:	00f707b3          	add	a5,a4,a5
   107d8:	00279793          	slli	a5,a5,0x2
   107dc:	00f907b3          	add	a5,s2,a5
   107e0:	f9842703          	lw	a4,-104(s0)
   107e4:	00e7a023          	sw	a4,0(a5)
   107e8:	0029d793          	srli	a5,s3,0x2
   107ec:	f8842903          	lw	s2,-120(s0)
   107f0:	f9842583          	lw	a1,-104(s0)
   107f4:	00078513          	mv	a0,a5
   107f8:	3c0000ef          	jal	ra,10bb8 <__mulsi3>
   107fc:	00050713          	mv	a4,a0
   10800:	f9c42783          	lw	a5,-100(s0)
   10804:	00f707b3          	add	a5,a4,a5
   10808:	00279793          	slli	a5,a5,0x2
   1080c:	00f907b3          	add	a5,s2,a5
   10810:	f9c42703          	lw	a4,-100(s0)
   10814:	00e7a023          	sw	a4,0(a5)
   10818:	0024d793          	srli	a5,s1,0x2
   1081c:	f7c42903          	lw	s2,-132(s0)
   10820:	f9842583          	lw	a1,-104(s0)
   10824:	00078513          	mv	a0,a5
   10828:	390000ef          	jal	ra,10bb8 <__mulsi3>
   1082c:	00050713          	mv	a4,a0
   10830:	f9c42783          	lw	a5,-100(s0)
   10834:	00f707b3          	add	a5,a4,a5
   10838:	00279793          	slli	a5,a5,0x2
   1083c:	00f907b3          	add	a5,s2,a5
   10840:	0007a023          	sw	zero,0(a5)
   10844:	f9c42783          	lw	a5,-100(s0)
   10848:	00178793          	addi	a5,a5,1
   1084c:	f8f42e23          	sw	a5,-100(s0)
   10850:	00a00793          	li	a5,10
   10854:	f9c42703          	lw	a4,-100(s0)
   10858:	f4f74ee3          	blt	a4,a5,107b4 <main+0x40c>
   1085c:	f9842783          	lw	a5,-104(s0)
   10860:	00178793          	addi	a5,a5,1
   10864:	f8f42c23          	sw	a5,-104(s0)
   10868:	00a00793          	li	a5,10
   1086c:	f9842703          	lw	a4,-104(s0)
   10870:	f2f74ee3          	blt	a4,a5,107ac <main+0x404>
   10874:	000117b7          	lui	a5,0x11
   10878:	08878513          	addi	a0,a5,136 # 11088 <__errno+0x8>
   1087c:	258000ef          	jal	ra,10ad4 <print_s>
   10880:	fa042023          	sw	zero,-96(s0)
   10884:	0800006f          	j	10904 <main+0x55c>
   10888:	fa042223          	sw	zero,-92(s0)
   1088c:	0540006f          	j	108e0 <main+0x538>
   10890:	f4c42783          	lw	a5,-180(s0)
   10894:	0027d793          	srli	a5,a5,0x2
   10898:	f9442903          	lw	s2,-108(s0)
   1089c:	fa042583          	lw	a1,-96(s0)
   108a0:	00078513          	mv	a0,a5
   108a4:	314000ef          	jal	ra,10bb8 <__mulsi3>
   108a8:	00050713          	mv	a4,a0
   108ac:	fa442783          	lw	a5,-92(s0)
   108b0:	00f707b3          	add	a5,a4,a5
   108b4:	00279793          	slli	a5,a5,0x2
   108b8:	00f907b3          	add	a5,s2,a5
   108bc:	0007a783          	lw	a5,0(a5)
   108c0:	00078513          	mv	a0,a5
   108c4:	1e8000ef          	jal	ra,10aac <print_d>
   108c8:	000117b7          	lui	a5,0x11
   108cc:	0a078513          	addi	a0,a5,160 # 110a0 <__errno+0x20>
   108d0:	204000ef          	jal	ra,10ad4 <print_s>
   108d4:	fa442783          	lw	a5,-92(s0)
   108d8:	00178793          	addi	a5,a5,1
   108dc:	faf42223          	sw	a5,-92(s0)
   108e0:	00a00793          	li	a5,10
   108e4:	fa442703          	lw	a4,-92(s0)
   108e8:	faf744e3          	blt	a4,a5,10890 <main+0x4e8>
   108ec:	000117b7          	lui	a5,0x11
   108f0:	0a478513          	addi	a0,a5,164 # 110a4 <__errno+0x24>
   108f4:	1e0000ef          	jal	ra,10ad4 <print_s>
   108f8:	fa042783          	lw	a5,-96(s0)
   108fc:	00178793          	addi	a5,a5,1
   10900:	faf42023          	sw	a5,-96(s0)
   10904:	00a00793          	li	a5,10
   10908:	fa042703          	lw	a4,-96(s0)
   1090c:	f6f74ee3          	blt	a4,a5,10888 <main+0x4e0>
   10910:	000117b7          	lui	a5,0x11
   10914:	0a878513          	addi	a0,a5,168 # 110a8 <__errno+0x28>
   10918:	1bc000ef          	jal	ra,10ad4 <print_s>
   1091c:	fa042423          	sw	zero,-88(s0)
   10920:	07c0006f          	j	1099c <main+0x5f4>
   10924:	fa042623          	sw	zero,-84(s0)
   10928:	0500006f          	j	10978 <main+0x5d0>
   1092c:	0029d793          	srli	a5,s3,0x2
   10930:	f8842903          	lw	s2,-120(s0)
   10934:	fa842583          	lw	a1,-88(s0)
   10938:	00078513          	mv	a0,a5
   1093c:	27c000ef          	jal	ra,10bb8 <__mulsi3>
   10940:	00050713          	mv	a4,a0
   10944:	fac42783          	lw	a5,-84(s0)
   10948:	00f707b3          	add	a5,a4,a5
   1094c:	00279793          	slli	a5,a5,0x2
   10950:	00f907b3          	add	a5,s2,a5
   10954:	0007a783          	lw	a5,0(a5)
   10958:	00078513          	mv	a0,a5
   1095c:	150000ef          	jal	ra,10aac <print_d>
   10960:	000117b7          	lui	a5,0x11
   10964:	0a078513          	addi	a0,a5,160 # 110a0 <__errno+0x20>
   10968:	16c000ef          	jal	ra,10ad4 <print_s>
   1096c:	fac42783          	lw	a5,-84(s0)
   10970:	00178793          	addi	a5,a5,1
   10974:	faf42623          	sw	a5,-84(s0)
   10978:	00a00793          	li	a5,10
   1097c:	fac42703          	lw	a4,-84(s0)
   10980:	faf746e3          	blt	a4,a5,1092c <main+0x584>
   10984:	000117b7          	lui	a5,0x11
   10988:	0a478513          	addi	a0,a5,164 # 110a4 <__errno+0x24>
   1098c:	148000ef          	jal	ra,10ad4 <print_s>
   10990:	fa842783          	lw	a5,-88(s0)
   10994:	00178793          	addi	a5,a5,1
   10998:	faf42423          	sw	a5,-88(s0)
   1099c:	00a00793          	li	a5,10
   109a0:	fa842703          	lw	a4,-88(s0)
   109a4:	f8f740e3          	blt	a4,a5,10924 <main+0x57c>
   109a8:	f9442783          	lw	a5,-108(s0)
   109ac:	f8842703          	lw	a4,-120(s0)
   109b0:	f7c42603          	lw	a2,-132(s0)
   109b4:	00a00693          	li	a3,10
   109b8:	00070593          	mv	a1,a4
   109bc:	00078513          	mv	a0,a5
   109c0:	f90ff0ef          	jal	ra,10150 <matmulti>
   109c4:	000117b7          	lui	a5,0x11
   109c8:	0c078513          	addi	a0,a5,192 # 110c0 <__errno+0x40>
   109cc:	108000ef          	jal	ra,10ad4 <print_s>
   109d0:	fa042823          	sw	zero,-80(s0)
   109d4:	07c0006f          	j	10a50 <main+0x6a8>
   109d8:	fa042a23          	sw	zero,-76(s0)
   109dc:	0500006f          	j	10a2c <main+0x684>
   109e0:	0024d793          	srli	a5,s1,0x2
   109e4:	f7c42903          	lw	s2,-132(s0)
   109e8:	fb042583          	lw	a1,-80(s0)
   109ec:	00078513          	mv	a0,a5
   109f0:	1c8000ef          	jal	ra,10bb8 <__mulsi3>
   109f4:	00050713          	mv	a4,a0
   109f8:	fb442783          	lw	a5,-76(s0)
   109fc:	00f707b3          	add	a5,a4,a5
   10a00:	00279793          	slli	a5,a5,0x2
   10a04:	00f907b3          	add	a5,s2,a5
   10a08:	0007a783          	lw	a5,0(a5)
   10a0c:	00078513          	mv	a0,a5
   10a10:	09c000ef          	jal	ra,10aac <print_d>
   10a14:	000117b7          	lui	a5,0x11
   10a18:	0a078513          	addi	a0,a5,160 # 110a0 <__errno+0x20>
   10a1c:	0b8000ef          	jal	ra,10ad4 <print_s>
   10a20:	fb442783          	lw	a5,-76(s0)
   10a24:	00178793          	addi	a5,a5,1
   10a28:	faf42a23          	sw	a5,-76(s0)
   10a2c:	00a00793          	li	a5,10
   10a30:	fb442703          	lw	a4,-76(s0)
   10a34:	faf746e3          	blt	a4,a5,109e0 <main+0x638>
   10a38:	000117b7          	lui	a5,0x11
   10a3c:	0a478513          	addi	a0,a5,164 # 110a4 <__errno+0x24>
   10a40:	094000ef          	jal	ra,10ad4 <print_s>
   10a44:	fb042783          	lw	a5,-80(s0)
   10a48:	00178793          	addi	a5,a5,1
   10a4c:	faf42823          	sw	a5,-80(s0)
   10a50:	00a00793          	li	a5,10
   10a54:	fb042703          	lw	a4,-80(s0)
   10a58:	f8f740e3          	blt	a4,a5,109d8 <main+0x630>
   10a5c:	0cc000ef          	jal	ra,10b28 <exit_proc>
   10a60:	f4842103          	lw	sp,-184(s0)
   10a64:	00000793          	li	a5,0
   10a68:	00078513          	mv	a0,a5
   10a6c:	ef040113          	addi	sp,s0,-272
   10a70:	10c12083          	lw	ra,268(sp)
   10a74:	10812403          	lw	s0,264(sp)
   10a78:	10412483          	lw	s1,260(sp)
   10a7c:	10012903          	lw	s2,256(sp)
   10a80:	0fc12983          	lw	s3,252(sp)
   10a84:	0f812a03          	lw	s4,248(sp)
   10a88:	0f412a83          	lw	s5,244(sp)
   10a8c:	0f012b03          	lw	s6,240(sp)
   10a90:	0ec12b83          	lw	s7,236(sp)
   10a94:	0e812c03          	lw	s8,232(sp)
   10a98:	0e412c83          	lw	s9,228(sp)
   10a9c:	0e012d03          	lw	s10,224(sp)
   10aa0:	0dc12d83          	lw	s11,220(sp)
   10aa4:	11010113          	addi	sp,sp,272
   10aa8:	00008067          	ret

00010aac <print_d>:
   10aac:	fe010113          	addi	sp,sp,-32
   10ab0:	00812e23          	sw	s0,28(sp)
   10ab4:	02010413          	addi	s0,sp,32
   10ab8:	fea42623          	sw	a0,-20(s0)
   10abc:	00200893          	li	a7,2
   10ac0:	00000073          	ecall
   10ac4:	00000013          	nop
   10ac8:	01c12403          	lw	s0,28(sp)
   10acc:	02010113          	addi	sp,sp,32
   10ad0:	00008067          	ret

00010ad4 <print_s>:
   10ad4:	fe010113          	addi	sp,sp,-32
   10ad8:	00812e23          	sw	s0,28(sp)
   10adc:	02010413          	addi	s0,sp,32
   10ae0:	fea42623          	sw	a0,-20(s0)
   10ae4:	00000893          	li	a7,0
   10ae8:	00000073          	ecall
   10aec:	00000013          	nop
   10af0:	01c12403          	lw	s0,28(sp)
   10af4:	02010113          	addi	sp,sp,32
   10af8:	00008067          	ret

00010afc <print_c>:
   10afc:	fe010113          	addi	sp,sp,-32
   10b00:	00812e23          	sw	s0,28(sp)
   10b04:	02010413          	addi	s0,sp,32
   10b08:	00050793          	mv	a5,a0
   10b0c:	fef407a3          	sb	a5,-17(s0)
   10b10:	00100893          	li	a7,1
   10b14:	00000073          	ecall
   10b18:	00000013          	nop
   10b1c:	01c12403          	lw	s0,28(sp)
   10b20:	02010113          	addi	sp,sp,32
   10b24:	00008067          	ret

00010b28 <exit_proc>:
   10b28:	ff010113          	addi	sp,sp,-16
   10b2c:	00812623          	sw	s0,12(sp)
   10b30:	01010413          	addi	s0,sp,16
   10b34:	00300893          	li	a7,3
   10b38:	00000073          	ecall
   10b3c:	00000013          	nop
   10b40:	00c12403          	lw	s0,12(sp)
   10b44:	01010113          	addi	sp,sp,16
   10b48:	00008067          	ret

00010b4c <read_char>:
   10b4c:	fe010113          	addi	sp,sp,-32
   10b50:	00812e23          	sw	s0,28(sp)
   10b54:	02010413          	addi	s0,sp,32
   10b58:	00400893          	li	a7,4
   10b5c:	00000073          	ecall
   10b60:	00050793          	mv	a5,a0
   10b64:	fef407a3          	sb	a5,-17(s0)
   10b68:	fef44783          	lbu	a5,-17(s0)
   10b6c:	00078513          	mv	a0,a5
   10b70:	01c12403          	lw	s0,28(sp)
   10b74:	02010113          	addi	sp,sp,32
   10b78:	00008067          	ret

00010b7c <read_num>:
   10b7c:	fe010113          	addi	sp,sp,-32
   10b80:	00812e23          	sw	s0,28(sp)
   10b84:	02010413          	addi	s0,sp,32
   10b88:	00500893          	li	a7,5
   10b8c:	00000073          	ecall
   10b90:	00050713          	mv	a4,a0
   10b94:	fee42423          	sw	a4,-24(s0)
   10b98:	fef42623          	sw	a5,-20(s0)
   10b9c:	fe842703          	lw	a4,-24(s0)
   10ba0:	fec42783          	lw	a5,-20(s0)
   10ba4:	00070513          	mv	a0,a4
   10ba8:	00078593          	mv	a1,a5
   10bac:	01c12403          	lw	s0,28(sp)
   10bb0:	02010113          	addi	sp,sp,32
   10bb4:	00008067          	ret

00010bb8 <__mulsi3>:
   10bb8:	00050613          	mv	a2,a0
   10bbc:	00000513          	li	a0,0
   10bc0:	0015f693          	andi	a3,a1,1
   10bc4:	00068463          	beqz	a3,10bcc <__mulsi3+0x14>
   10bc8:	00c50533          	add	a0,a0,a2
   10bcc:	0015d593          	srli	a1,a1,0x1
   10bd0:	00161613          	slli	a2,a2,0x1
   10bd4:	fe0596e3          	bnez	a1,10bc0 <__mulsi3+0x8>
   10bd8:	00008067          	ret

00010bdc <__muldi3>:
   10bdc:	00050313          	mv	t1,a0
   10be0:	ff010113          	addi	sp,sp,-16
   10be4:	00060513          	mv	a0,a2
   10be8:	00068893          	mv	a7,a3
   10bec:	00112623          	sw	ra,12(sp)
   10bf0:	00030613          	mv	a2,t1
   10bf4:	00050693          	mv	a3,a0
   10bf8:	00000713          	li	a4,0
   10bfc:	00000793          	li	a5,0
   10c00:	00000813          	li	a6,0
   10c04:	0016fe13          	andi	t3,a3,1
   10c08:	00171e93          	slli	t4,a4,0x1
   10c0c:	000e0c63          	beqz	t3,10c24 <__muldi3+0x48>
   10c10:	01060e33          	add	t3,a2,a6
   10c14:	010e3833          	sltu	a6,t3,a6
   10c18:	00e787b3          	add	a5,a5,a4
   10c1c:	00f807b3          	add	a5,a6,a5
   10c20:	000e0813          	mv	a6,t3
   10c24:	01f65713          	srli	a4,a2,0x1f
   10c28:	0016d693          	srli	a3,a3,0x1
   10c2c:	00eee733          	or	a4,t4,a4
   10c30:	00161613          	slli	a2,a2,0x1
   10c34:	fc0698e3          	bnez	a3,10c04 <__muldi3+0x28>
   10c38:	00058663          	beqz	a1,10c44 <__muldi3+0x68>
   10c3c:	f7dff0ef          	jal	ra,10bb8 <__mulsi3>
   10c40:	00a787b3          	add	a5,a5,a0
   10c44:	00088a63          	beqz	a7,10c58 <__muldi3+0x7c>
   10c48:	00030513          	mv	a0,t1
   10c4c:	00088593          	mv	a1,a7
   10c50:	f69ff0ef          	jal	ra,10bb8 <__mulsi3>
   10c54:	00f507b3          	add	a5,a0,a5
   10c58:	00c12083          	lw	ra,12(sp)
   10c5c:	00080513          	mv	a0,a6
   10c60:	00078593          	mv	a1,a5
   10c64:	01010113          	addi	sp,sp,16
   10c68:	00008067          	ret

00010c6c <exit>:
   10c6c:	ff010113          	addi	sp,sp,-16
   10c70:	00000593          	li	a1,0
   10c74:	00812423          	sw	s0,8(sp)
   10c78:	00112623          	sw	ra,12(sp)
   10c7c:	00050413          	mv	s0,a0
   10c80:	194000ef          	jal	ra,10e14 <__call_exitprocs>
   10c84:	c2c1a503          	lw	a0,-980(gp) # 1251c <_global_impure_ptr>
   10c88:	03c52783          	lw	a5,60(a0)
   10c8c:	00078463          	beqz	a5,10c94 <exit+0x28>
   10c90:	000780e7          	jalr	a5
   10c94:	00040513          	mv	a0,s0
   10c98:	3a4000ef          	jal	ra,1103c <_exit>

00010c9c <__libc_init_array>:
   10c9c:	ff010113          	addi	sp,sp,-16
   10ca0:	00812423          	sw	s0,8(sp)
   10ca4:	01212023          	sw	s2,0(sp)
   10ca8:	00012437          	lui	s0,0x12
   10cac:	00012937          	lui	s2,0x12
   10cb0:	0e040793          	addi	a5,s0,224 # 120e0 <__init_array_start>
   10cb4:	0e090913          	addi	s2,s2,224 # 120e0 <__init_array_start>
   10cb8:	40f90933          	sub	s2,s2,a5
   10cbc:	00112623          	sw	ra,12(sp)
   10cc0:	00912223          	sw	s1,4(sp)
   10cc4:	40295913          	srai	s2,s2,0x2
   10cc8:	02090063          	beqz	s2,10ce8 <__libc_init_array+0x4c>
   10ccc:	0e040413          	addi	s0,s0,224
   10cd0:	00000493          	li	s1,0
   10cd4:	00042783          	lw	a5,0(s0)
   10cd8:	00148493          	addi	s1,s1,1
   10cdc:	00440413          	addi	s0,s0,4
   10ce0:	000780e7          	jalr	a5
   10ce4:	fe9918e3          	bne	s2,s1,10cd4 <__libc_init_array+0x38>
   10ce8:	00012437          	lui	s0,0x12
   10cec:	00012937          	lui	s2,0x12
   10cf0:	0e040793          	addi	a5,s0,224 # 120e0 <__init_array_start>
   10cf4:	0e890913          	addi	s2,s2,232 # 120e8 <__init_array_end>
   10cf8:	40f90933          	sub	s2,s2,a5
   10cfc:	40295913          	srai	s2,s2,0x2
   10d00:	02090063          	beqz	s2,10d20 <__libc_init_array+0x84>
   10d04:	0e040413          	addi	s0,s0,224
   10d08:	00000493          	li	s1,0
   10d0c:	00042783          	lw	a5,0(s0)
   10d10:	00148493          	addi	s1,s1,1
   10d14:	00440413          	addi	s0,s0,4
   10d18:	000780e7          	jalr	a5
   10d1c:	fe9918e3          	bne	s2,s1,10d0c <__libc_init_array+0x70>
   10d20:	00c12083          	lw	ra,12(sp)
   10d24:	00812403          	lw	s0,8(sp)
   10d28:	00412483          	lw	s1,4(sp)
   10d2c:	00012903          	lw	s2,0(sp)
   10d30:	01010113          	addi	sp,sp,16
   10d34:	00008067          	ret

00010d38 <memset>:
   10d38:	00f00313          	li	t1,15
   10d3c:	00050713          	mv	a4,a0
   10d40:	02c37e63          	bgeu	t1,a2,10d7c <memset+0x44>
   10d44:	00f77793          	andi	a5,a4,15
   10d48:	0a079063          	bnez	a5,10de8 <memset+0xb0>
   10d4c:	08059263          	bnez	a1,10dd0 <memset+0x98>
   10d50:	ff067693          	andi	a3,a2,-16
   10d54:	00f67613          	andi	a2,a2,15
   10d58:	00e686b3          	add	a3,a3,a4
   10d5c:	00b72023          	sw	a1,0(a4)
   10d60:	00b72223          	sw	a1,4(a4)
   10d64:	00b72423          	sw	a1,8(a4)
   10d68:	00b72623          	sw	a1,12(a4)
   10d6c:	01070713          	addi	a4,a4,16
   10d70:	fed766e3          	bltu	a4,a3,10d5c <memset+0x24>
   10d74:	00061463          	bnez	a2,10d7c <memset+0x44>
   10d78:	00008067          	ret
   10d7c:	40c306b3          	sub	a3,t1,a2
   10d80:	00269693          	slli	a3,a3,0x2
   10d84:	00000297          	auipc	t0,0x0
   10d88:	005686b3          	add	a3,a3,t0
   10d8c:	00c68067          	jr	12(a3)
   10d90:	00b70723          	sb	a1,14(a4)
   10d94:	00b706a3          	sb	a1,13(a4)
   10d98:	00b70623          	sb	a1,12(a4)
   10d9c:	00b705a3          	sb	a1,11(a4)
   10da0:	00b70523          	sb	a1,10(a4)
   10da4:	00b704a3          	sb	a1,9(a4)
   10da8:	00b70423          	sb	a1,8(a4)
   10dac:	00b703a3          	sb	a1,7(a4)
   10db0:	00b70323          	sb	a1,6(a4)
   10db4:	00b702a3          	sb	a1,5(a4)
   10db8:	00b70223          	sb	a1,4(a4)
   10dbc:	00b701a3          	sb	a1,3(a4)
   10dc0:	00b70123          	sb	a1,2(a4)
   10dc4:	00b700a3          	sb	a1,1(a4)
   10dc8:	00b70023          	sb	a1,0(a4)
   10dcc:	00008067          	ret
   10dd0:	0ff5f593          	andi	a1,a1,255
   10dd4:	00859693          	slli	a3,a1,0x8
   10dd8:	00d5e5b3          	or	a1,a1,a3
   10ddc:	01059693          	slli	a3,a1,0x10
   10de0:	00d5e5b3          	or	a1,a1,a3
   10de4:	f6dff06f          	j	10d50 <memset+0x18>
   10de8:	00279693          	slli	a3,a5,0x2
   10dec:	00000297          	auipc	t0,0x0
   10df0:	005686b3          	add	a3,a3,t0
   10df4:	00008293          	mv	t0,ra
   10df8:	fa0680e7          	jalr	-96(a3)
   10dfc:	00028093          	mv	ra,t0
   10e00:	ff078793          	addi	a5,a5,-16
   10e04:	40f70733          	sub	a4,a4,a5
   10e08:	00f60633          	add	a2,a2,a5
   10e0c:	f6c378e3          	bgeu	t1,a2,10d7c <memset+0x44>
   10e10:	f3dff06f          	j	10d4c <memset+0x14>

00010e14 <__call_exitprocs>:
   10e14:	fd010113          	addi	sp,sp,-48
   10e18:	01412c23          	sw	s4,24(sp)
   10e1c:	c2c1aa03          	lw	s4,-980(gp) # 1251c <_global_impure_ptr>
   10e20:	03212023          	sw	s2,32(sp)
   10e24:	02112623          	sw	ra,44(sp)
   10e28:	148a2903          	lw	s2,328(s4)
   10e2c:	02812423          	sw	s0,40(sp)
   10e30:	02912223          	sw	s1,36(sp)
   10e34:	01312e23          	sw	s3,28(sp)
   10e38:	01512a23          	sw	s5,20(sp)
   10e3c:	01612823          	sw	s6,16(sp)
   10e40:	01712623          	sw	s7,12(sp)
   10e44:	01812423          	sw	s8,8(sp)
   10e48:	04090063          	beqz	s2,10e88 <__call_exitprocs+0x74>
   10e4c:	00050b13          	mv	s6,a0
   10e50:	00058b93          	mv	s7,a1
   10e54:	00100a93          	li	s5,1
   10e58:	fff00993          	li	s3,-1
   10e5c:	00492483          	lw	s1,4(s2)
   10e60:	fff48413          	addi	s0,s1,-1
   10e64:	02044263          	bltz	s0,10e88 <__call_exitprocs+0x74>
   10e68:	00249493          	slli	s1,s1,0x2
   10e6c:	009904b3          	add	s1,s2,s1
   10e70:	040b8463          	beqz	s7,10eb8 <__call_exitprocs+0xa4>
   10e74:	1044a783          	lw	a5,260(s1)
   10e78:	05778063          	beq	a5,s7,10eb8 <__call_exitprocs+0xa4>
   10e7c:	fff40413          	addi	s0,s0,-1
   10e80:	ffc48493          	addi	s1,s1,-4
   10e84:	ff3416e3          	bne	s0,s3,10e70 <__call_exitprocs+0x5c>
   10e88:	02c12083          	lw	ra,44(sp)
   10e8c:	02812403          	lw	s0,40(sp)
   10e90:	02412483          	lw	s1,36(sp)
   10e94:	02012903          	lw	s2,32(sp)
   10e98:	01c12983          	lw	s3,28(sp)
   10e9c:	01812a03          	lw	s4,24(sp)
   10ea0:	01412a83          	lw	s5,20(sp)
   10ea4:	01012b03          	lw	s6,16(sp)
   10ea8:	00c12b83          	lw	s7,12(sp)
   10eac:	00812c03          	lw	s8,8(sp)
   10eb0:	03010113          	addi	sp,sp,48
   10eb4:	00008067          	ret
   10eb8:	00492783          	lw	a5,4(s2)
   10ebc:	0044a683          	lw	a3,4(s1)
   10ec0:	fff78793          	addi	a5,a5,-1
   10ec4:	04878e63          	beq	a5,s0,10f20 <__call_exitprocs+0x10c>
   10ec8:	0004a223          	sw	zero,4(s1)
   10ecc:	fa0688e3          	beqz	a3,10e7c <__call_exitprocs+0x68>
   10ed0:	18892783          	lw	a5,392(s2)
   10ed4:	008a9733          	sll	a4,s5,s0
   10ed8:	00492c03          	lw	s8,4(s2)
   10edc:	00f777b3          	and	a5,a4,a5
   10ee0:	02079263          	bnez	a5,10f04 <__call_exitprocs+0xf0>
   10ee4:	000680e7          	jalr	a3
   10ee8:	00492703          	lw	a4,4(s2)
   10eec:	148a2783          	lw	a5,328(s4)
   10ef0:	01871463          	bne	a4,s8,10ef8 <__call_exitprocs+0xe4>
   10ef4:	f8f904e3          	beq	s2,a5,10e7c <__call_exitprocs+0x68>
   10ef8:	f80788e3          	beqz	a5,10e88 <__call_exitprocs+0x74>
   10efc:	00078913          	mv	s2,a5
   10f00:	f5dff06f          	j	10e5c <__call_exitprocs+0x48>
   10f04:	18c92783          	lw	a5,396(s2)
   10f08:	0844a583          	lw	a1,132(s1)
   10f0c:	00f77733          	and	a4,a4,a5
   10f10:	00071c63          	bnez	a4,10f28 <__call_exitprocs+0x114>
   10f14:	000b0513          	mv	a0,s6
   10f18:	000680e7          	jalr	a3
   10f1c:	fcdff06f          	j	10ee8 <__call_exitprocs+0xd4>
   10f20:	00892223          	sw	s0,4(s2)
   10f24:	fa9ff06f          	j	10ecc <__call_exitprocs+0xb8>
   10f28:	00058513          	mv	a0,a1
   10f2c:	000680e7          	jalr	a3
   10f30:	fb9ff06f          	j	10ee8 <__call_exitprocs+0xd4>

00010f34 <__libc_fini_array>:
   10f34:	ff010113          	addi	sp,sp,-16
   10f38:	00812423          	sw	s0,8(sp)
   10f3c:	000127b7          	lui	a5,0x12
   10f40:	00012437          	lui	s0,0x12
   10f44:	0e840413          	addi	s0,s0,232 # 120e8 <__init_array_end>
   10f48:	0ec78793          	addi	a5,a5,236 # 120ec <__fini_array_end>
   10f4c:	408787b3          	sub	a5,a5,s0
   10f50:	00912223          	sw	s1,4(sp)
   10f54:	00112623          	sw	ra,12(sp)
   10f58:	4027d493          	srai	s1,a5,0x2
   10f5c:	02048063          	beqz	s1,10f7c <__libc_fini_array+0x48>
   10f60:	ffc78793          	addi	a5,a5,-4
   10f64:	00878433          	add	s0,a5,s0
   10f68:	00042783          	lw	a5,0(s0)
   10f6c:	fff48493          	addi	s1,s1,-1
   10f70:	ffc40413          	addi	s0,s0,-4
   10f74:	000780e7          	jalr	a5
   10f78:	fe0498e3          	bnez	s1,10f68 <__libc_fini_array+0x34>
   10f7c:	00c12083          	lw	ra,12(sp)
   10f80:	00812403          	lw	s0,8(sp)
   10f84:	00412483          	lw	s1,4(sp)
   10f88:	01010113          	addi	sp,sp,16
   10f8c:	00008067          	ret

00010f90 <atexit>:
   10f90:	00050593          	mv	a1,a0
   10f94:	00000693          	li	a3,0
   10f98:	00000613          	li	a2,0
   10f9c:	00000513          	li	a0,0
   10fa0:	0040006f          	j	10fa4 <__register_exitproc>

00010fa4 <__register_exitproc>:
   10fa4:	c2c1a703          	lw	a4,-980(gp) # 1251c <_global_impure_ptr>
   10fa8:	14872783          	lw	a5,328(a4)
   10fac:	04078c63          	beqz	a5,11004 <__register_exitproc+0x60>
   10fb0:	0047a703          	lw	a4,4(a5)
   10fb4:	01f00813          	li	a6,31
   10fb8:	06e84e63          	blt	a6,a4,11034 <__register_exitproc+0x90>
   10fbc:	00271813          	slli	a6,a4,0x2
   10fc0:	02050663          	beqz	a0,10fec <__register_exitproc+0x48>
   10fc4:	01078333          	add	t1,a5,a6
   10fc8:	08c32423          	sw	a2,136(t1) # 101cc <matmulti+0x7c>
   10fcc:	1887a883          	lw	a7,392(a5)
   10fd0:	00100613          	li	a2,1
   10fd4:	00e61633          	sll	a2,a2,a4
   10fd8:	00c8e8b3          	or	a7,a7,a2
   10fdc:	1917a423          	sw	a7,392(a5)
   10fe0:	10d32423          	sw	a3,264(t1)
   10fe4:	00200693          	li	a3,2
   10fe8:	02d50463          	beq	a0,a3,11010 <__register_exitproc+0x6c>
   10fec:	00170713          	addi	a4,a4,1
   10ff0:	00e7a223          	sw	a4,4(a5)
   10ff4:	010787b3          	add	a5,a5,a6
   10ff8:	00b7a423          	sw	a1,8(a5)
   10ffc:	00000513          	li	a0,0
   11000:	00008067          	ret
   11004:	14c70793          	addi	a5,a4,332
   11008:	14f72423          	sw	a5,328(a4)
   1100c:	fa5ff06f          	j	10fb0 <__register_exitproc+0xc>
   11010:	18c7a683          	lw	a3,396(a5)
   11014:	00170713          	addi	a4,a4,1
   11018:	00e7a223          	sw	a4,4(a5)
   1101c:	00c6e633          	or	a2,a3,a2
   11020:	18c7a623          	sw	a2,396(a5)
   11024:	010787b3          	add	a5,a5,a6
   11028:	00b7a423          	sw	a1,8(a5)
   1102c:	00000513          	li	a0,0
   11030:	00008067          	ret
   11034:	fff00513          	li	a0,-1
   11038:	00008067          	ret

0001103c <_exit>:
   1103c:	00000593          	li	a1,0
   11040:	00000613          	li	a2,0
   11044:	00000693          	li	a3,0
   11048:	00000713          	li	a4,0
   1104c:	00000793          	li	a5,0
   11050:	05d00893          	li	a7,93
   11054:	00000073          	ecall
   11058:	00054463          	bltz	a0,11060 <_exit+0x24>
   1105c:	0000006f          	j	1105c <_exit+0x20>
   11060:	ff010113          	addi	sp,sp,-16
   11064:	00812423          	sw	s0,8(sp)
   11068:	00050413          	mv	s0,a0
   1106c:	00112623          	sw	ra,12(sp)
   11070:	40800433          	neg	s0,s0
   11074:	00c000ef          	jal	ra,11080 <__errno>
   11078:	00852023          	sw	s0,0(a0)
   1107c:	0000006f          	j	1107c <_exit+0x40>

00011080 <__errno>:
   11080:	c341a503          	lw	a0,-972(gp) # 12524 <_impure_ptr>
   11084:	00008067          	ret
